target datalayout = "e-m:e-p270:32:32-p271:32:32-p272:64:64-i64:64-i128:128-f80:128-n8:16:32:64-S128"
target triple = "x86_64-unknown-linux-gnu"

%"class.icu_75::UFormattedListImpl" = type { %"struct.icu_75::UFormattedValueImpl", %"class.icu_75::IcuCApiHelper.0", [4 x i8], %"class.icu_75::FormattedList" }
%"struct.icu_75::UFormattedValueImpl" = type { %"class.icu_75::IcuCApiHelper", ptr }
%"class.icu_75::IcuCApiHelper" = type { i32 }
%"class.icu_75::IcuCApiHelper.0" = type { i32 }
%"class.icu_75::FormattedList" = type <{ %"class.icu_75::FormattedValue", ptr, i32, [4 x i8] }>
%"class.icu_75::FormattedValue" = type { ptr }

@_ZTVN6icu_7513FormattedListE = external unnamed_addr constant { [8 x ptr] }, align 8
@_ZTVN6icu_7514FormattedValueE = external unnamed_addr constant { [8 x ptr] }, align 8

; Function Attrs: mustprogress nounwind uwtable
define linkonce_odr void @_ZN6icu_7513IcuCApiHelperI15UFormattedValueNS_19UFormattedValueImplELi1430672896EED2Ev(ptr noundef nonnull align 4 dereferenceable(4) %this) unnamed_addr #0 comdat align 2 {
entry:
  %this.addr = alloca ptr, align 8
  store ptr %this, ptr %this.addr, align 8
  %this1 = load ptr, ptr %this.addr, align 8
  %fMagic = getelementptr inbounds %"class.icu_75::IcuCApiHelper", ptr %this1, i32 0, i32 0
  store i32 0, ptr %fMagic, align 4
  ret void
}

; Function Attrs: mustprogress nounwind uwtable
define linkonce_odr void @_ZN6icu_7514FormattedValueC2Ev(ptr noundef nonnull align 8 dereferenceable(8) %this) unnamed_addr #0 comdat align 2 {
entry:
  %this.addr = alloca ptr, align 8
  store ptr %this, ptr %this.addr, align 8
  %this1 = load ptr, ptr %this.addr, align 8
  store ptr getelementptr inbounds ({ [8 x ptr] }, ptr @_ZTVN6icu_7514FormattedValueE, i32 0, i32 0, i32 2), ptr %this1, align 8
  ret void
}

; Function Attrs: mustprogress nounwind uwtable
define linkonce_odr void @_ZN6icu_7513IcuCApiHelperI15UFormattedValueNS_19UFormattedValueImplELi1430672896EEC2Ev(ptr noundef nonnull align 4 dereferenceable(4) %this) unnamed_addr #0 comdat align 2 {
entry:
  %this.addr = alloca ptr, align 8
  store ptr %this, ptr %this.addr, align 8
  %this1 = load ptr, ptr %this.addr, align 8
  %fMagic = getelementptr inbounds %"class.icu_75::IcuCApiHelper", ptr %this1, i32 0, i32 0
  store i32 1430672896, ptr %fMagic, align 4
  ret void
}

; Function Attrs: mustprogress nounwind uwtable
define linkonce_odr void @_ZN6icu_7519UFormattedValueImplD2Ev(ptr noundef nonnull align 8 dereferenceable(16) %this) unnamed_addr #0 comdat align 2 {
entry:
  %this.addr = alloca ptr, align 8
  store ptr %this, ptr %this.addr, align 8
  %this1 = load ptr, ptr %this.addr, align 8
  call void @_ZN6icu_7513IcuCApiHelperI15UFormattedValueNS_19UFormattedValueImplELi1430672896EED2Ev(ptr noundef nonnull align 4 dereferenceable(4) %this1) #8
  ret void
}

; Function Attrs: mustprogress nounwind uwtable
define linkonce_odr void @_ZN6icu_7513IcuCApiHelperI14UFormattedListNS_18UFormattedListImplELi1179407188EED2Ev(ptr noundef nonnull align 4 dereferenceable(4) %this) unnamed_addr #0 comdat align 2 {
entry:
  %this.addr = alloca ptr, align 8
  store ptr %this, ptr %this.addr, align 8
  %this1 = load ptr, ptr %this.addr, align 8
  %fMagic = getelementptr inbounds %"class.icu_75::IcuCApiHelper.0", ptr %this1, i32 0, i32 0
  store i32 0, ptr %fMagic, align 4
  ret void
}

; Function Attrs: mustprogress nounwind uwtable
define linkonce_odr void @_ZN6icu_7513FormattedListC2Ev(ptr noundef nonnull align 8 dereferenceable(20) %this) unnamed_addr #0 comdat align 2 {
entry:
  %this.addr = alloca ptr, align 8
  store ptr %this, ptr %this.addr, align 8
  %this1 = load ptr, ptr %this.addr, align 8
  call void @_ZN6icu_7514FormattedValueC2Ev(ptr noundef nonnull align 8 dereferenceable(8) %this1) #8
  store ptr getelementptr inbounds ({ [8 x ptr] }, ptr @_ZTVN6icu_7513FormattedListE, i32 0, i32 0, i32 2), ptr %this1, align 8
  %fData = getelementptr inbounds %"class.icu_75::FormattedList", ptr %this1, i32 0, i32 1
  store ptr null, ptr %fData, align 8
  %fErrorCode = getelementptr inbounds %"class.icu_75::FormattedList", ptr %this1, i32 0, i32 2
  store i32 27, ptr %fErrorCode, align 8
  ret void
}

; Function Attrs: mustprogress nounwind uwtable
define linkonce_odr void @_ZN6icu_7513IcuCApiHelperI14UFormattedListNS_18UFormattedListImplELi1179407188EEC2Ev(ptr noundef nonnull align 4 dereferenceable(4) %this) unnamed_addr #0 comdat align 2 {
entry:
  %this.addr = alloca ptr, align 8
  store ptr %this, ptr %this.addr, align 8
  %this1 = load ptr, ptr %this.addr, align 8
  %fMagic = getelementptr inbounds %"class.icu_75::IcuCApiHelper.0", ptr %this1, i32 0, i32 0
  store i32 1179407188, ptr %fMagic, align 4
  ret void
}

; Function Attrs: mustprogress nounwind uwtable
define linkonce_odr void @_ZN6icu_7519UFormattedValueImplC2Ev(ptr noundef nonnull align 8 dereferenceable(16) %this) unnamed_addr #0 comdat align 2 {
entry:
  %this.addr = alloca ptr, align 8
  store ptr %this, ptr %this.addr, align 8
  %this1 = load ptr, ptr %this.addr, align 8
  call void @_ZN6icu_7513IcuCApiHelperI15UFormattedValueNS_19UFormattedValueImplELi1430672896EEC2Ev(ptr noundef nonnull align 4 dereferenceable(4) %this1) #8
  %fFormattedValue = getelementptr inbounds %"struct.icu_75::UFormattedValueImpl", ptr %this1, i32 0, i32 1
  store ptr null, ptr %fFormattedValue, align 8
  ret void
}

; Function Attrs: mustprogress uwtable
define void @_ZN6icu_7518UFormattedListImplC2Ev(ptr noundef nonnull align 8 dereferenceable(48) %this) unnamed_addr #1 align 2 personality ptr @__gxx_personality_v0 {
entry:
  %this.addr = alloca ptr, align 8
  %exn.slot = alloca ptr, align 8
  %ehselector.slot = alloca i32, align 4
  store ptr %this, ptr %this.addr, align 8
  %this1 = load ptr, ptr %this.addr, align 8
  call void @_ZN6icu_7519UFormattedValueImplC2Ev(ptr noundef nonnull align 8 dereferenceable(16) %this1) #8
  %0 = getelementptr inbounds i8, ptr %this1, i64 16
  call void @_ZN6icu_7513IcuCApiHelperI14UFormattedListNS_18UFormattedListImplELi1179407188EEC2Ev(ptr noundef nonnull align 4 dereferenceable(4) %0) #8
  %fImpl = getelementptr inbounds %"class.icu_75::UFormattedListImpl", ptr %this1, i32 0, i32 3
  invoke void @_ZN6icu_7513FormattedListC2Ev(ptr noundef nonnull align 8 dereferenceable(20) %fImpl)
          to label %invoke.cont unwind label %lpad

invoke.cont:                                      ; preds = %entry
  %fImpl2 = getelementptr inbounds %"class.icu_75::UFormattedListImpl", ptr %this1, i32 0, i32 3
  %fFormattedValue = getelementptr inbounds %"struct.icu_75::UFormattedValueImpl", ptr %this1, i32 0, i32 1
  store ptr %fImpl2, ptr %fFormattedValue, align 8
  ret void

lpad:                                             ; preds = %entry
  %1 = landingpad { ptr, i32 }
          cleanup
  %2 = extractvalue { ptr, i32 } %1, 0
  store ptr %2, ptr %exn.slot, align 8
  %3 = extractvalue { ptr, i32 } %1, 1
  store i32 %3, ptr %ehselector.slot, align 4
  %4 = getelementptr inbounds i8, ptr %this1, i64 16
  call void @_ZN6icu_7513IcuCApiHelperI14UFormattedListNS_18UFormattedListImplELi1179407188EED2Ev(ptr noundef nonnull align 4 dereferenceable(4) %4) #8
  call void @_ZN6icu_7519UFormattedValueImplD2Ev(ptr noundef nonnull align 8 dereferenceable(16) %this1) #8
  br label %eh.resume

eh.resume:                                        ; preds = %lpad
  %exn = load ptr, ptr %exn.slot, align 8
  %sel = load i32, ptr %ehselector.slot, align 4
  %lpad.val = insertvalue { ptr, i32 } poison, ptr %exn, 0
  %lpad.val3 = insertvalue { ptr, i32 } %lpad.val, i32 %sel, 1
  resume { ptr, i32 } %lpad.val3
}