; Function Attrs: mustprogress nofree norecurse nosync nounwind willreturn memory(argmem: write) uwtable
define void @_ZN6icu_7518UFormattedListImplC2Ev(ptr noundef nonnull align 8 dereferenceable(48) %this) unnamed_addr #7 align 2 personality ptr @__gxx_personality_v0 {
entry:
  store i32 1430672896, ptr %this, align 8
  %fFormattedValue.i = getelementptr inbounds i8, ptr %this, i64 8
  %0 = getelementptr inbounds i8, ptr %this, i64 16
  store i32 1179407188, ptr %0, align 8
  %fImpl = getelementptr inbounds i8, ptr %this, i64 24
  store ptr getelementptr inbounds ({ [8 x ptr] }, ptr @_ZTVN6icu_7513FormattedListE, i64 0, i32 0, i64 2), ptr %fImpl, align 8
  %fData.i = getelementptr inbounds i8, ptr %this, i64 32
  store ptr null, ptr %fData.i, align 8
  %fErrorCode.i = getelementptr inbounds i8, ptr %this, i64 40
  store i32 27, ptr %fErrorCode.i, align 8
  store ptr %fImpl, ptr %fFormattedValue.i, align 8
  ret void
}